target datalayout = "e-m:e-p270:32:32-p271:32:32-p272:64:64-i64:64-i128:128-f80:128-n8:16:32:64-S128"
target triple = "x86_64-pc-linux-gnu"

%struct.psa_crypto_local_input_s = type { ptr, i64 }
%struct.mbedtls_cipher_context_t = type { ptr, i32, i32, ptr, ptr, [16 x i8], i64, [16 x i8], i64, ptr, ptr }
%struct.psa_aead_operation_s = type { i32, i32, i16, i64, i64, i8, %union.psa_driver_aead_context_t }
%union.psa_driver_aead_context_t = type { %struct.mbedtls_psa_aead_operation_t }
%struct.mbedtls_psa_aead_operation_t = type { i32, i16, i8, i8, %union.anon.4 }
%union.anon.4 = type { %struct.mbedtls_gcm_context }
%struct.mbedtls_gcm_context = type { %struct.mbedtls_cipher_context_t, [16 x [2 x i64]], i64, i64, [16 x i8], [16 x i8], [16 x i8], i8, i8 }

; Function Attrs: inlinehint nounwind uwtable
define internal i32 @psa_driver_wrapper_aead_abort(ptr noundef %0) #6 {
  %2 = alloca i32, align 4
  %3 = alloca ptr, align 8
  store ptr %0, ptr %3, align 8, !tbaa !97
  %4 = load ptr, ptr %3, align 8, !tbaa !97
  %5 = getelementptr inbounds nuw %struct.psa_aead_operation_s, ptr %4, i32 0, i32 0
  %6 = load i32, ptr %5, align 8, !tbaa !99
  switch i32 %6, label %11 [
    i32 1, label %7
  ]

7:                                                ; preds = %1
  %8 = load ptr, ptr %3, align 8, !tbaa !97
  %9 = getelementptr inbounds nuw %struct.psa_aead_operation_s, ptr %8, i32 0, i32 6
  %10 = call i32 @mbedtls_psa_aead_abort(ptr noundef %9)
  store i32 %10, ptr %2, align 4
  br label %12

11:                                               ; preds = %1
  store i32 -135, ptr %2, align 4
  br label %12

12:                                               ; preds = %11, %7
  %13 = load i32, ptr %2, align 4
  ret i32 %13
}

; Function Attrs: nounwind uwtable
define internal i32 @psa_aead_get_base_algorithm(i32 noundef %0) #0 {
  %2 = alloca i32, align 4
  store i32 %0, ptr %2, align 4, !tbaa !3
  %3 = load i32, ptr %2, align 4, !tbaa !3
  %4 = and i32 %3, -4161537
  %5 = or i32 %4, 0
  %6 = icmp eq i32 %5, 88080640
  br i1 %6, label %7, label %8

7:                                                ; preds = %1
  br label %22

8:                                                ; preds = %1
  %9 = load i32, ptr %2, align 4, !tbaa !3
  %10 = and i32 %9, -4161537
  %11 = or i32 %10, 0
  %12 = icmp eq i32 %11, 88080896
  br i1 %12, label %13, label %14

13:                                               ; preds = %8
  br label %20

14:                                               ; preds = %8
  %15 = load i32, ptr %2, align 4, !tbaa !3
  %16 = and i32 %15, -4161537
  %17 = or i32 %16, 0
  %18 = icmp eq i32 %17, 83887360
  %19 = select i1 %18, i32 84935936, i32 0
  br label %20

20:                                               ; preds = %14, %13
  %21 = phi i32 [ 89129472, %13 ], [ %19, %14 ]
  br label %22

22:                                               ; preds = %20, %7
  %23 = phi i32 [ 89129216, %7 ], [ %21, %20 ]
  ret i32 %23
}

; Function Attrs: nounwind uwtable
define hidden i32 @psa_aead_abort(ptr noundef %0) #0 {
  %2 = alloca i32, align 4
  %3 = alloca ptr, align 8
  %4 = alloca i32, align 4
  %5 = alloca i32, align 4
  store ptr %0, ptr %3, align 8, !tbaa !97
  call void @llvm.lifetime.start.p0(i64 4, ptr %4) #8
  store i32 -151, ptr %4, align 4, !tbaa !3
  %6 = load ptr, ptr %3, align 8, !tbaa !97
  %7 = getelementptr inbounds nuw %struct.psa_aead_operation_s, ptr %6, i32 0, i32 0
  %8 = load i32, ptr %7, align 8, !tbaa !99
  %9 = icmp eq i32 %8, 0
  br i1 %9, label %10, label %11

10:                                               ; preds = %1
  store i32 0, ptr %2, align 4
  store i32 1, ptr %5, align 4
  br label %16

11:                                               ; preds = %1
  %12 = load ptr, ptr %3, align 8, !tbaa !97
  %13 = call i32 @psa_driver_wrapper_aead_abort(ptr noundef %12)
  store i32 %13, ptr %4, align 4, !tbaa !3
  %14 = load ptr, ptr %3, align 8, !tbaa !97
  call void @llvm.memset.p0.i64(ptr align 8 %14, i8 0, i64 472, i1 false)
  %15 = load i32, ptr %4, align 4, !tbaa !3
  store i32 %15, ptr %2, align 4
  store i32 1, ptr %5, align 4
  br label %16

16:                                               ; preds = %11, %10
  call void @llvm.lifetime.end.p0(i64 4, ptr %4) #8
  %17 = load i32, ptr %2, align 4
  ret i32 %17
}

; Function Attrs: inlinehint nounwind uwtable
define internal i32 @psa_driver_wrapper_aead_set_nonce(ptr noundef %0, ptr noundef %1, i64 noundef %2) #6 {
  %4 = alloca i32, align 4
  %5 = alloca ptr, align 8
  %6 = alloca ptr, align 8
  %7 = alloca i64, align 8
  store ptr %0, ptr %5, align 8, !tbaa !97
  store ptr %1, ptr %6, align 8, !tbaa !29
  store i64 %2, ptr %7, align 8, !tbaa !20
  %8 = load ptr, ptr %5, align 8, !tbaa !97
  %9 = getelementptr inbounds nuw %struct.psa_aead_operation_s, ptr %8, i32 0, i32 0
  %10 = load i32, ptr %9, align 8, !tbaa !99
  switch i32 %10, label %17 [
    i32 1, label %11
  ]

11:                                               ; preds = %3
  %12 = load ptr, ptr %5, align 8, !tbaa !97
  %13 = getelementptr inbounds nuw %struct.psa_aead_operation_s, ptr %12, i32 0, i32 6
  %14 = load ptr, ptr %6, align 8, !tbaa !29
  %15 = load i64, ptr %7, align 8, !tbaa !20
  %16 = call i32 @mbedtls_psa_aead_set_nonce(ptr noundef %13, ptr noundef %14, i64 noundef %15)
  store i32 %16, ptr %4, align 4
  br label %18

17:                                               ; preds = %3
  store i32 -135, ptr %4, align 4
  br label %18

18:                                               ; preds = %17, %11
  %19 = load i32, ptr %4, align 4
  ret i32 %19
}

; Function Attrs: nounwind uwtable
define internal i32 @psa_aead_check_nonce_length(i32 noundef %0, i64 noundef %1) #0 {
  %3 = alloca i32, align 4
  %4 = alloca i32, align 4
  %5 = alloca i64, align 8
  %6 = alloca i32, align 4
  %7 = alloca i32, align 4
  store i32 %0, ptr %4, align 4, !tbaa !3
  store i64 %1, ptr %5, align 8, !tbaa !20
  call void @llvm.lifetime.start.p0(i64 4, ptr %6) #8
  %8 = load i32, ptr %4, align 4, !tbaa !3
  %9 = call i32 @psa_aead_get_base_algorithm(i32 noundef %8)
  store i32 %9, ptr %6, align 4, !tbaa !3
  %10 = load i32, ptr %6, align 4, !tbaa !3
  switch i32 %10, label %34 [
    i32 89129472, label %11
    i32 89129216, label %16
    i32 84935936, label %24
  ]

11:                                               ; preds = %2
  %12 = load i64, ptr %5, align 8, !tbaa !20
  %13 = icmp ne i64 %12, 0
  br i1 %13, label %14, label %15

14:                                               ; preds = %11
  store i32 0, ptr %3, align 4
  store i32 1, ptr %7, align 4
  br label %36

15:                                               ; preds = %11
  br label %35

16:                                               ; preds = %2
  %17 = load i64, ptr %5, align 8, !tbaa !20
  %18 = icmp uge i64 %17, 7
  br i1 %18, label %19, label %23

19:                                               ; preds = %16
  %20 = load i64, ptr %5, align 8, !tbaa !20
  %21 = icmp ule i64 %20, 13
  br i1 %21, label %22, label %23

22:                                               ; preds = %19
  store i32 0, ptr %3, align 4
  store i32 1, ptr %7, align 4
  br label %36

23:                                               ; preds = %19, %16
  br label %35

24:                                               ; preds = %2
  %25 = load i64, ptr %5, align 8, !tbaa !20
  %26 = icmp eq i64 %25, 12
  br i1 %26, label %27, label %28

27:                                               ; preds = %24
  store i32 0, ptr %3, align 4
  store i32 1, ptr %7, align 4
  br label %36

28:                                               ; preds = %24
  %29 = load i64, ptr %5, align 8, !tbaa !20
  %30 = icmp eq i64 %29, 8
  br i1 %30, label %31, label %32

31:                                               ; preds = %28
  store i32 -134, ptr %3, align 4
  store i32 1, ptr %7, align 4
  br label %36

32:                                               ; preds = %28
  br label %33

33:                                               ; preds = %32
  br label %35

34:                                               ; preds = %2
  store i32 -134, ptr %3, align 4
  store i32 1, ptr %7, align 4
  br label %36

35:                                               ; preds = %33, %23, %15
  store i32 -135, ptr %3, align 4
  store i32 1, ptr %7, align 4
  br label %36

36:                                               ; preds = %35, %34, %31, %27, %22, %14
  call void @llvm.lifetime.end.p0(i64 4, ptr %6) #8
  %37 = load i32, ptr %3, align 4
  ret i32 %37
}

; Function Attrs: nounwind uwtable
define internal i32 @psa_crypto_copy_input(ptr noundef %0, i64 noundef %1, ptr noundef %2, i64 noundef %3) #0 {
  %5 = alloca i32, align 4
  %6 = alloca ptr, align 8
  %7 = alloca i64, align 8
  %8 = alloca ptr, align 8
  %9 = alloca i64, align 8
  store ptr %0, ptr %6, align 8, !tbaa !29
  store i64 %1, ptr %7, align 8, !tbaa !20
  store ptr %2, ptr %8, align 8, !tbaa !29
  store i64 %3, ptr %9, align 8, !tbaa !20
  %10 = load i64, ptr %7, align 8, !tbaa !20
  %11 = load i64, ptr %9, align 8, !tbaa !20
  %12 = icmp ugt i64 %10, %11
  br i1 %12, label %13, label %14

13:                                               ; preds = %4
  store i32 -151, ptr %5, align 4
  br label %22

14:                                               ; preds = %4
  %15 = load i64, ptr %7, align 8, !tbaa !20
  %16 = icmp ugt i64 %15, 0
  br i1 %16, label %17, label %21

17:                                               ; preds = %14
  %18 = load ptr, ptr %8, align 8, !tbaa !29
  %19 = load ptr, ptr %6, align 8, !tbaa !29
  %20 = load i64, ptr %7, align 8, !tbaa !20
  call void @llvm.memcpy.p0.p0.i64(ptr align 1 %18, ptr align 1 %19, i64 %20, i1 false)
  br label %21

21:                                               ; preds = %17, %14
  store i32 0, ptr %5, align 4
  br label %22

22:                                               ; preds = %21, %13
  %23 = load i32, ptr %5, align 4
  ret i32 %23
}

; Function Attrs: nounwind uwtable
define hidden void @psa_crypto_local_input_free(ptr noundef %0) #0 {
  %2 = alloca ptr, align 8
  store ptr %0, ptr %2, align 8, !tbaa !59
  %3 = load ptr, ptr %2, align 8, !tbaa !59
  %4 = getelementptr inbounds nuw %struct.psa_crypto_local_input_s, ptr %3, i32 0, i32 0
  %5 = load ptr, ptr %4, align 8, !tbaa !55
  call void @free(ptr noundef %5) #8
  %6 = load ptr, ptr %2, align 8, !tbaa !59
  %7 = getelementptr inbounds nuw %struct.psa_crypto_local_input_s, ptr %6, i32 0, i32 0
  store ptr null, ptr %7, align 8, !tbaa !55
  %8 = load ptr, ptr %2, align 8, !tbaa !59
  %9 = getelementptr inbounds nuw %struct.psa_crypto_local_input_s, ptr %8, i32 0, i32 1
  store i64 0, ptr %9, align 8, !tbaa !61
  ret void
}

; Function Attrs: nounwind uwtable
define internal i32 @psa_aead_set_nonce_internal(ptr noundef %0, ptr noundef %1, i64 noundef %2) #0 {
  %4 = alloca ptr, align 8
  %5 = alloca ptr, align 8
  %6 = alloca i64, align 8
  %7 = alloca i32, align 4
  store ptr %0, ptr %4, align 8, !tbaa !97
  store ptr %1, ptr %5, align 8, !tbaa !29
  store i64 %2, ptr %6, align 8, !tbaa !20
  call void @llvm.lifetime.start.p0(i64 4, ptr %7) #8
  store i32 -151, ptr %7, align 4, !tbaa !3
  %8 = load ptr, ptr %4, align 8, !tbaa !97
  %9 = getelementptr inbounds nuw %struct.psa_aead_operation_s, ptr %8, i32 0, i32 0
  %10 = load i32, ptr %9, align 8, !tbaa !99
  %11 = icmp eq i32 %10, 0
  br i1 %11, label %12, label %13

12:                                               ; preds = %3
  store i32 -137, ptr %7, align 4, !tbaa !3
  br label %35

13:                                               ; preds = %3
  %14 = load ptr, ptr %4, align 8, !tbaa !97
  %15 = getelementptr inbounds nuw %struct.psa_aead_operation_s, ptr %14, i32 0, i32 5
  %16 = load i8, ptr %15, align 8
  %17 = and i8 %16, 1
  %18 = zext i8 %17 to i32
  %19 = icmp ne i32 %18, 0
  br i1 %19, label %20, label %21

20:                                               ; preds = %13
  store i32 -137, ptr %7, align 4, !tbaa !3
  br label %35

21:                                               ; preds = %13
  %22 = load ptr, ptr %4, align 8, !tbaa !97
  %23 = getelementptr inbounds nuw %struct.psa_aead_operation_s, ptr %22, i32 0, i32 1
  %24 = load i32, ptr %23, align 4, !tbaa !102
  %25 = load i64, ptr %6, align 8, !tbaa !20
  %26 = call i32 @psa_aead_check_nonce_length(i32 noundef %24, i64 noundef %25)
  store i32 %26, ptr %7, align 4, !tbaa !3
  %27 = load i32, ptr %7, align 4, !tbaa !3
  %28 = icmp ne i32 %27, 0
  br i1 %28, label %29, label %30

29:                                               ; preds = %21
  store i32 -135, ptr %7, align 4, !tbaa !3
  br label %35

30:                                               ; preds = %21
  %31 = load ptr, ptr %4, align 8, !tbaa !97
  %32 = load ptr, ptr %5, align 8, !tbaa !29
  %33 = load i64, ptr %6, align 8, !tbaa !20
  %34 = call i32 @psa_driver_wrapper_aead_set_nonce(ptr noundef %31, ptr noundef %32, i64 noundef %33)
  store i32 %34, ptr %7, align 4, !tbaa !3
  br label %35

35:                                               ; preds = %30, %29, %20, %12
  %36 = load i32, ptr %7, align 4, !tbaa !3
  %37 = icmp eq i32 %36, 0
  br i1 %37, label %38, label %44

38:                                               ; preds = %35
  %39 = load ptr, ptr %4, align 8, !tbaa !97
  %40 = getelementptr inbounds nuw %struct.psa_aead_operation_s, ptr %39, i32 0, i32 5
  %41 = load i8, ptr %40, align 8
  %42 = and i8 %41, -2
  %43 = or i8 %42, 1
  store i8 %43, ptr %40, align 8
  br label %47

44:                                               ; preds = %35
  %45 = load ptr, ptr %4, align 8, !tbaa !97
  %46 = call i32 @psa_aead_abort(ptr noundef %45)
  br label %47

47:                                               ; preds = %44, %38
  %48 = load i32, ptr %7, align 4, !tbaa !3
  call void @llvm.lifetime.end.p0(i64 4, ptr %7) #8
  ret i32 %48
}

; Function Attrs: nounwind uwtable
define hidden i32 @psa_crypto_local_input_alloc(ptr noundef %0, i64 noundef %1, ptr noundef %2) #0 {
  %4 = alloca i32, align 4
  %5 = alloca ptr, align 8
  %6 = alloca i64, align 8
  %7 = alloca ptr, align 8
  %8 = alloca i32, align 4
  %9 = alloca %struct.psa_crypto_local_input_s, align 8
  %10 = alloca i32, align 4
  store ptr %0, ptr %5, align 8, !tbaa !29
  store i64 %1, ptr %6, align 8, !tbaa !20
  store ptr %2, ptr %7, align 8, !tbaa !59
  call void @llvm.lifetime.start.p0(i64 4, ptr %8) #8
  %11 = load ptr, ptr %7, align 8, !tbaa !59
  %12 = getelementptr inbounds nuw %struct.psa_crypto_local_input_s, ptr %9, i32 0, i32 0
  store ptr null, ptr %12, align 8, !tbaa !55
  %13 = getelementptr inbounds nuw %struct.psa_crypto_local_input_s, ptr %9, i32 0, i32 1
  store i64 0, ptr %13, align 8, !tbaa !61
  call void @llvm.memcpy.p0.p0.i64(ptr align 8 %11, ptr align 8 %9, i64 16, i1 false), !tbaa.struct !62
  %14 = load i64, ptr %6, align 8, !tbaa !20
  %15 = icmp eq i64 %14, 0
  br i1 %15, label %16, label %17

16:                                               ; preds = %3
  store i32 0, ptr %4, align 4
  store i32 1, ptr %10, align 4
  br label %53

17:                                               ; preds = %3
  %18 = load i64, ptr %6, align 8, !tbaa !20
  %19 = call noalias ptr @calloc(i64 noundef %18, i64 noundef 1) #9
  %20 = load ptr, ptr %7, align 8, !tbaa !59
  %21 = getelementptr inbounds nuw %struct.psa_crypto_local_input_s, ptr %20, i32 0, i32 0
  store ptr %19, ptr %21, align 8, !tbaa !55
  %22 = load ptr, ptr %7, align 8, !tbaa !59
  %23 = getelementptr inbounds nuw %struct.psa_crypto_local_input_s, ptr %22, i32 0, i32 0
  %24 = load ptr, ptr %23, align 8, !tbaa !55
  %25 = icmp eq ptr %24, null
  br i1 %25, label %26, label %27

26:                                               ; preds = %17
  store i32 -141, ptr %4, align 4
  store i32 1, ptr %10, align 4
  br label %53

27:                                               ; preds = %17
  %28 = load i64, ptr %6, align 8, !tbaa !20
  %29 = load ptr, ptr %7, align 8, !tbaa !59
  %30 = getelementptr inbounds nuw %struct.psa_crypto_local_input_s, ptr %29, i32 0, i32 1
  store i64 %28, ptr %30, align 8, !tbaa !61
  %31 = load ptr, ptr %5, align 8, !tbaa !29
  %32 = load i64, ptr %6, align 8, !tbaa !20
  %33 = load ptr, ptr %7, align 8, !tbaa !59
  %34 = getelementptr inbounds nuw %struct.psa_crypto_local_input_s, ptr %33, i32 0, i32 0
  %35 = load ptr, ptr %34, align 8, !tbaa !55
  %36 = load ptr, ptr %7, align 8, !tbaa !59
  %37 = getelementptr inbounds nuw %struct.psa_crypto_local_input_s, ptr %36, i32 0, i32 1
  %38 = load i64, ptr %37, align 8, !tbaa !61
  %39 = call i32 @psa_crypto_copy_input(ptr noundef %31, i64 noundef %32, ptr noundef %35, i64 noundef %38)
  store i32 %39, ptr %8, align 4, !tbaa !3
  %40 = load i32, ptr %8, align 4, !tbaa !3
  %41 = icmp ne i32 %40, 0
  br i1 %41, label %42, label %43

42:                                               ; preds = %27
  br label %44

43:                                               ; preds = %27
  store i32 0, ptr %4, align 4
  store i32 1, ptr %10, align 4
  br label %53

44:                                               ; preds = %42
  %45 = load ptr, ptr %7, align 8, !tbaa !59
  %46 = getelementptr inbounds nuw %struct.psa_crypto_local_input_s, ptr %45, i32 0, i32 0
  %47 = load ptr, ptr %46, align 8, !tbaa !55
  call void @free(ptr noundef %47) #8
  %48 = load ptr, ptr %7, align 8, !tbaa !59
  %49 = getelementptr inbounds nuw %struct.psa_crypto_local_input_s, ptr %48, i32 0, i32 0
  store ptr null, ptr %49, align 8, !tbaa !55
  %50 = load ptr, ptr %7, align 8, !tbaa !59
  %51 = getelementptr inbounds nuw %struct.psa_crypto_local_input_s, ptr %50, i32 0, i32 1
  store i64 0, ptr %51, align 8, !tbaa !61
  %52 = load i32, ptr %8, align 4, !tbaa !3
  store i32 %52, ptr %4, align 4
  store i32 1, ptr %10, align 4
  br label %53

53:                                               ; preds = %44, %43, %26, %16
  call void @llvm.lifetime.end.p0(i64 4, ptr %8) #8
  %54 = load i32, ptr %4, align 4
  ret i32 %54
}

; Function Attrs: nounwind uwtable
define hidden i32 @psa_aead_set_nonce(ptr noundef %0, ptr noundef %1, i64 noundef %2) #0 {
  %4 = alloca ptr, align 8
  %5 = alloca ptr, align 8
  %6 = alloca i64, align 8
  %7 = alloca i32, align 4
  %8 = alloca %struct.psa_crypto_local_input_s, align 8
  %9 = alloca ptr, align 8
  store ptr %0, ptr %4, align 8, !tbaa !97
  store ptr %1, ptr %5, align 8, !tbaa !29
  store i64 %2, ptr %6, align 8, !tbaa !20
  call void @llvm.lifetime.start.p0(i64 4, ptr %7) #8
  call void @llvm.lifetime.start.p0(i64 16, ptr %8) #8
  call void @llvm.memset.p0.i64(ptr align 8 %8, i8 0, i64 16, i1 false)
  call void @llvm.lifetime.start.p0(i64 8, ptr %9) #8
  store ptr null, ptr %9, align 8, !tbaa !29
  %10 = load ptr, ptr %5, align 8, !tbaa !29
  %11 = load i64, ptr %6, align 8, !tbaa !20
  %12 = call i32 @psa_crypto_local_input_alloc(ptr noundef %10, i64 noundef %11, ptr noundef %8)
  store i32 %12, ptr %7, align 4, !tbaa !3
  %13 = load i32, ptr %7, align 4, !tbaa !3
  %14 = icmp ne i32 %13, 0
  br i1 %14, label %15, label %16

15:                                               ; preds = %3
  br label %23

16:                                               ; preds = %3
  %17 = getelementptr inbounds nuw %struct.psa_crypto_local_input_s, ptr %8, i32 0, i32 0
  %18 = load ptr, ptr %17, align 8, !tbaa !55
  store ptr %18, ptr %9, align 8, !tbaa !29
  %19 = load ptr, ptr %4, align 8, !tbaa !97
  %20 = load ptr, ptr %9, align 8, !tbaa !29
  %21 = load i64, ptr %6, align 8, !tbaa !20
  %22 = call i32 @psa_aead_set_nonce_internal(ptr noundef %19, ptr noundef %20, i64 noundef %21)
  store i32 %22, ptr %7, align 4, !tbaa !3
  br label %23

23:                                               ; preds = %16, %15
  store ptr null, ptr %9, align 8, !tbaa !29
  call void @psa_crypto_local_input_free(ptr noundef %8)
  %24 = load i32, ptr %7, align 4, !tbaa !3
  call void @llvm.lifetime.end.p0(i64 8, ptr %9) #8
  call void @llvm.lifetime.end.p0(i64 16, ptr %8) #8
  call void @llvm.lifetime.end.p0(i64 4, ptr %7) #8
  ret i32 %24
}