; Function Attrs: nounwind uwtable
define hidden i32 @psa_aead_set_nonce(ptr noundef %0, ptr noundef readonly captures(none) %1, i64 noundef %2) local_unnamed_addr #7 {
  %4 = icmp eq i64 %2, 0
  br i1 %4, label %9, label %5

5:                                                ; preds = %3
  %6 = tail call noalias ptr @calloc(i64 noundef %2, i64 noundef 1) #21
  %7 = icmp eq ptr %6, null
  br i1 %7, label %psa_crypto_local_input_alloc.exit, label %8

8:                                                ; preds = %5
  tail call void @llvm.memcpy.p0.p0.i64(ptr noundef nonnull align 1 dereferenceable(1) %6, ptr noundef nonnull readonly align 1 dereferenceable(1) %1, i64 range(i64 1, 0) %2, i1 false)
  br label %9

9:                                                ; preds = %3, %8
  %.sroa.0.0.ph = phi ptr [ %6, %8 ], [ null, %3 ]
  %10 = load i32, ptr %0, align 8, !tbaa !68
  %11 = icmp eq i32 %10, 0
  br i1 %11, label %psa_crypto_local_input_alloc.exit, label %12

12:                                               ; preds = %9
  %13 = getelementptr inbounds nuw i8, ptr %0, i64 32
  %14 = load i8, ptr %13, align 8
  %15 = and i8 %14, 1
  %.not.i = icmp eq i8 %15, 0
  br i1 %.not.i, label %16, label %psa_aead_check_nonce_length.exit.thread17.i

16:                                               ; preds = %12
  %17 = getelementptr inbounds nuw i8, ptr %0, i64 4
  %18 = load i32, ptr %17, align 4, !tbaa !71
  %19 = and i32 %18, -4161537
  switch i32 %19, label %psa_aead_check_nonce_length.exit.thread17.i [
    i32 88080640, label %21
    i32 88080896, label %20
    i32 83887360, label %psa_aead_get_base_algorithm.exit.i.i
  ]

20:                                               ; preds = %16
  %.not.i.i = icmp ne i64 %2, 0
  %cond.i.old.i = icmp eq i32 %10, 1
  %or.cond22.i = and i1 %.not.i.i, %cond.i.old.i
  br i1 %or.cond22.i, label %psa_aead_check_nonce_length.exit.i, label %psa_aead_check_nonce_length.exit.thread17.i

21:                                               ; preds = %16
  %22 = add i64 %2, -7
  %or.cond.i.i = icmp ult i64 %22, 7
  %cond.i.old.old.i = icmp eq i32 %10, 1
  %or.cond23.i = and i1 %or.cond.i.i, %cond.i.old.old.i
  br i1 %or.cond23.i, label %psa_aead_check_nonce_length.exit.i, label %psa_aead_check_nonce_length.exit.thread17.i

psa_aead_get_base_algorithm.exit.i.i:             ; preds = %16
  %switch.selectcmp10.i.i = icmp eq i64 %2, 12
  %cond.i.i = icmp eq i32 %10, 1
  %or.cond.i = and i1 %switch.selectcmp10.i.i, %cond.i.i
  br i1 %or.cond.i, label %psa_aead_check_nonce_length.exit.i, label %psa_aead_check_nonce_length.exit.thread17.i

psa_aead_check_nonce_length.exit.i:               ; preds = %psa_aead_get_base_algorithm.exit.i.i, %21, %20
  %23 = getelementptr inbounds nuw i8, ptr %0, i64 40
  %24 = tail call i32 @mbedtls_psa_aead_set_nonce(ptr noundef nonnull %23, ptr noundef %.sroa.0.0.ph, i64 noundef %2) #22
  %25 = icmp eq i32 %24, 0
  br i1 %25, label %26, label %psa_aead_check_nonce_length.exit.psa_aead_check_nonce_length.exit.thread17_crit_edge.i

psa_aead_check_nonce_length.exit.psa_aead_check_nonce_length.exit.thread17_crit_edge.i: ; preds = %psa_aead_check_nonce_length.exit.i
  %.pr.pre.i = load i32, ptr %0, align 8, !tbaa !68
  br label %psa_aead_check_nonce_length.exit.thread17.i

26:                                               ; preds = %psa_aead_check_nonce_length.exit.i
  %27 = load i8, ptr %13, align 8
  %28 = or i8 %27, 1
  store i8 %28, ptr %13, align 8
  br label %psa_crypto_local_input_alloc.exit

psa_aead_check_nonce_length.exit.thread17.i:      ; preds = %psa_aead_check_nonce_length.exit.psa_aead_check_nonce_length.exit.thread17_crit_edge.i, %psa_aead_get_base_algorithm.exit.i.i, %21, %20, %16, %12
  %.pr.i = phi i32 [ %10, %20 ], [ %10, %21 ], [ %10, %12 ], [ %10, %psa_aead_get_base_algorithm.exit.i.i ], [ %10, %16 ], [ %.pr.pre.i, %psa_aead_check_nonce_length.exit.psa_aead_check_nonce_length.exit.thread17_crit_edge.i ]
  %.020.ph.i = phi i32 [ -135, %20 ], [ -135, %21 ], [ -137, %12 ], [ -135, %psa_aead_get_base_algorithm.exit.i.i ], [ -135, %16 ], [ %24, %psa_aead_check_nonce_length.exit.psa_aead_check_nonce_length.exit.thread17_crit_edge.i ]
  switch i32 %.pr.i, label %psa_driver_wrapper_aead_abort.exit.i.i [
    i32 0, label %psa_crypto_local_input_alloc.exit
    i32 1, label %29
  ]

29:                                               ; preds = %psa_aead_check_nonce_length.exit.thread17.i
  %30 = getelementptr inbounds nuw i8, ptr %0, i64 40
  %31 = tail call i32 @mbedtls_psa_aead_abort(ptr noundef nonnull %30) #22
  br label %psa_driver_wrapper_aead_abort.exit.i.i

psa_driver_wrapper_aead_abort.exit.i.i:           ; preds = %29, %psa_aead_check_nonce_length.exit.thread17.i
  tail call void @llvm.memset.p0.i64(ptr noundef nonnull align 8 dereferenceable(472) %0, i8 0, i64 472, i1 false)
  br label %psa_crypto_local_input_alloc.exit

psa_crypto_local_input_alloc.exit:                ; preds = %psa_driver_wrapper_aead_abort.exit.i.i, %psa_aead_check_nonce_length.exit.thread17.i, %26, %9, %5
  %.sroa.0.016 = phi ptr [ null, %5 ], [ %.sroa.0.0.ph, %26 ], [ %.sroa.0.0.ph, %psa_aead_check_nonce_length.exit.thread17.i ], [ %.sroa.0.0.ph, %psa_driver_wrapper_aead_abort.exit.i.i ], [ %.sroa.0.0.ph, %9 ]
  %.0 = phi i32 [ -141, %5 ], [ 0, %26 ], [ %.020.ph.i, %psa_aead_check_nonce_length.exit.thread17.i ], [ %.020.ph.i, %psa_driver_wrapper_aead_abort.exit.i.i ], [ -137, %9 ]
  tail call void @free(ptr noundef %.sroa.0.016) #22
  ret i32 %.0
}